target datalayout = "e-m:e-p270:32:32-p271:32:32-p272:64:64-i64:64-i128:128-f80:128-n8:16:32:64-S128"
target triple = "x86_64-unknown-linux-gnu"

%"class.rocksdb::lru_cache::LRUHandleTable" = type { i32, %"class.std::unique_ptr", i32, i32, ptr }
%"class.std::unique_ptr" = type { %"struct.std::__uniq_ptr_data" }
%"struct.std::__uniq_ptr_data" = type { %"class.std::__uniq_ptr_impl" }
%"class.std::__uniq_ptr_impl" = type { %"class.std::tuple" }
%"class.std::tuple" = type { %"struct.std::_Tuple_impl" }
%"struct.std::_Tuple_impl" = type { %"struct.std::_Head_base.1" }
%"struct.std::_Head_base.1" = type { ptr }
%"struct.rocksdb::lru_cache::LRUHandle" = type { ptr, ptr, ptr, ptr, ptr, i64, i64, i32, i32, i8, i8, [1 x i8] }
%"class.rocksdb::lru_cache::LRUCacheShard" = type { %"class.rocksdb::CacheShardBase", i64, i64, i64, i8, double, double, double, double, %"struct.rocksdb::lru_cache::LRUHandle", ptr, ptr, %"class.rocksdb::lru_cache::LRUHandleTable", i64, i64, %"class.rocksdb::port::Mutex", ptr }
%"class.rocksdb::CacheShardBase" = type { i32 }
%"class.rocksdb::port::Mutex" = type { %union.pthread_mutex_t }
%union.pthread_mutex_t = type { %struct.__pthread_mutex_s }
%struct.__pthread_mutex_s = type { i32, i32, i32, i32, i32, i16, i16, %struct.__pthread_internal_list }
%struct.__pthread_internal_list = type { ptr, ptr }
%"class.std::lock_guard" = type { ptr }

; Function Attrs: mustprogress uwtable
define linkonce_odr void @_ZN7rocksdb4port5Mutex6unlockEv(ptr noundef nonnull align 8 dereferenceable(40) %this) #0 comdat align 2 {
entry:
  %this.addr = alloca ptr, align 8
  store ptr %this, ptr %this.addr, align 8
  %this1 = load ptr, ptr %this.addr, align 8
  call void @_ZN7rocksdb4port5Mutex6UnlockEv(ptr noundef nonnull align 8 dereferenceable(40) %this1)
  ret void
}

; Function Attrs: mustprogress nounwind uwtable
define linkonce_odr void @_ZN7rocksdb9lru_cache9LRUHandle15SetInLowPriPoolEb(ptr noundef nonnull align 8 dereferenceable(72) %this, i1 noundef zeroext %in_low_pri_pool) #4 comdat align 2 {
entry:
  %this.addr = alloca ptr, align 8
  %in_low_pri_pool.addr = alloca i8, align 1
  store ptr %this, ptr %this.addr, align 8
  %frombool = zext i1 %in_low_pri_pool to i8
  store i8 %frombool, ptr %in_low_pri_pool.addr, align 1
  %this1 = load ptr, ptr %this.addr, align 8
  %0 = load i8, ptr %in_low_pri_pool.addr, align 1
  %tobool = trunc i8 %0 to i1
  br i1 %tobool, label %if.then, label %if.else

if.then:                                          ; preds = %entry
  %m_flags = getelementptr inbounds %"struct.rocksdb::lru_cache::LRUHandle", ptr %this1, i32 0, i32 9
  %1 = load i8, ptr %m_flags, align 8
  %conv = zext i8 %1 to i32
  %or = or i32 %conv, 8
  %conv2 = trunc i32 %or to i8
  store i8 %conv2, ptr %m_flags, align 8
  br label %if.end

if.else:                                          ; preds = %entry
  %m_flags3 = getelementptr inbounds %"struct.rocksdb::lru_cache::LRUHandle", ptr %this1, i32 0, i32 9
  %2 = load i8, ptr %m_flags3, align 8
  %conv4 = zext i8 %2 to i32
  %and = and i32 %conv4, -9
  %conv5 = trunc i32 %and to i8
  store i8 %conv5, ptr %m_flags3, align 8
  br label %if.end

if.end:                                           ; preds = %if.else, %if.then
  ret void
}

; Function Attrs: mustprogress nounwind uwtable
define linkonce_odr void @_ZN7rocksdb9lru_cache9LRUHandle16SetInHighPriPoolEb(ptr noundef nonnull align 8 dereferenceable(72) %this, i1 noundef zeroext %in_high_pri_pool) #4 comdat align 2 {
entry:
  %this.addr = alloca ptr, align 8
  %in_high_pri_pool.addr = alloca i8, align 1
  store ptr %this, ptr %this.addr, align 8
  %frombool = zext i1 %in_high_pri_pool to i8
  store i8 %frombool, ptr %in_high_pri_pool.addr, align 1
  %this1 = load ptr, ptr %this.addr, align 8
  %0 = load i8, ptr %in_high_pri_pool.addr, align 1
  %tobool = trunc i8 %0 to i1
  br i1 %tobool, label %if.then, label %if.else

if.then:                                          ; preds = %entry
  %m_flags = getelementptr inbounds %"struct.rocksdb::lru_cache::LRUHandle", ptr %this1, i32 0, i32 9
  %1 = load i8, ptr %m_flags, align 8
  %conv = zext i8 %1 to i32
  %or = or i32 %conv, 4
  %conv2 = trunc i32 %or to i8
  store i8 %conv2, ptr %m_flags, align 8
  br label %if.end

if.else:                                          ; preds = %entry
  %m_flags3 = getelementptr inbounds %"struct.rocksdb::lru_cache::LRUHandle", ptr %this1, i32 0, i32 9
  %2 = load i8, ptr %m_flags3, align 8
  %conv4 = zext i8 %2 to i32
  %and = and i32 %conv4, -5
  %conv5 = trunc i32 %and to i8
  store i8 %conv5, ptr %m_flags3, align 8
  br label %if.end

if.end:                                           ; preds = %if.else, %if.then
  ret void
}

; Function Attrs: mustprogress uwtable
define linkonce_odr void @_ZN7rocksdb4port5Mutex4lockEv(ptr noundef nonnull align 8 dereferenceable(40) %this) #0 comdat align 2 {
entry:
  %this.addr = alloca ptr, align 8
  store ptr %this, ptr %this.addr, align 8
  %this1 = load ptr, ptr %this.addr, align 8
  call void @_ZN7rocksdb4port5Mutex4LockEv(ptr noundef nonnull align 8 dereferenceable(40) %this1)
  ret void
}

; Function Attrs: mustprogress nounwind uwtable
define linkonce_odr void @_ZNSt10lock_guardIN7rocksdb4port5MutexEED2Ev(ptr noundef nonnull align 8 dereferenceable(8) %this) unnamed_addr #4 comdat align 2 personality ptr @__gxx_personality_v0 {
entry:
  %this.addr = alloca ptr, align 8
  store ptr %this, ptr %this.addr, align 8
  %this1 = load ptr, ptr %this.addr, align 8
  %_M_device = getelementptr inbounds %"class.std::lock_guard", ptr %this1, i32 0, i32 0
  %0 = load ptr, ptr %_M_device, align 8
  invoke void @_ZN7rocksdb4port5Mutex6unlockEv(ptr noundef nonnull align 8 dereferenceable(40) %0)
          to label %invoke.cont unwind label %terminate.lpad

invoke.cont:                                      ; preds = %entry
  ret void

terminate.lpad:                                   ; preds = %entry
  %1 = landingpad { ptr, i32 }
          catch ptr null
  %2 = extractvalue { ptr, i32 } %1, 0
  call void @__clang_call_terminate(ptr %2) #16
  unreachable
}

; Function Attrs: mustprogress uwtable
define void @_ZN7rocksdb9lru_cache13LRUCacheShard16MaintainPoolSizeEv(ptr noundef nonnull align 64 dereferenceable(256) %this) #0 align 2 {
entry:
  %this.addr = alloca ptr, align 8
  store ptr %this, ptr %this.addr, align 8
  %this1 = load ptr, ptr %this.addr, align 8
  br label %while.cond

while.cond:                                       ; preds = %while.body, %entry
  %high_pri_pool_usage_ = getelementptr inbounds %"class.rocksdb::lru_cache::LRUCacheShard", ptr %this1, i32 0, i32 2
  %0 = load i64, ptr %high_pri_pool_usage_, align 16
  %conv = uitofp i64 %0 to double
  %high_pri_pool_capacity_ = getelementptr inbounds %"class.rocksdb::lru_cache::LRUCacheShard", ptr %this1, i32 0, i32 6
  %1 = load double, ptr %high_pri_pool_capacity_, align 16
  %cmp = fcmp ogt double %conv, %1
  br i1 %cmp, label %while.body, label %while.end

while.body:                                       ; preds = %while.cond
  %lru_low_pri_ = getelementptr inbounds %"class.rocksdb::lru_cache::LRUCacheShard", ptr %this1, i32 0, i32 10
  %2 = load ptr, ptr %lru_low_pri_, align 16
  %next = getelementptr inbounds %"struct.rocksdb::lru_cache::LRUHandle", ptr %2, i32 0, i32 3
  %3 = load ptr, ptr %next, align 8
  %lru_low_pri_2 = getelementptr inbounds %"class.rocksdb::lru_cache::LRUCacheShard", ptr %this1, i32 0, i32 10
  store ptr %3, ptr %lru_low_pri_2, align 16
  %lru_low_pri_3 = getelementptr inbounds %"class.rocksdb::lru_cache::LRUCacheShard", ptr %this1, i32 0, i32 10
  %4 = load ptr, ptr %lru_low_pri_3, align 16
  call void @_ZN7rocksdb9lru_cache9LRUHandle16SetInHighPriPoolEb(ptr noundef nonnull align 8 dereferenceable(72) %4, i1 noundef zeroext false)
  %lru_low_pri_4 = getelementptr inbounds %"class.rocksdb::lru_cache::LRUCacheShard", ptr %this1, i32 0, i32 10
  %5 = load ptr, ptr %lru_low_pri_4, align 16
  call void @_ZN7rocksdb9lru_cache9LRUHandle15SetInLowPriPoolEb(ptr noundef nonnull align 8 dereferenceable(72) %5, i1 noundef zeroext true)
  %lru_low_pri_5 = getelementptr inbounds %"class.rocksdb::lru_cache::LRUCacheShard", ptr %this1, i32 0, i32 10
  %6 = load ptr, ptr %lru_low_pri_5, align 16
  %total_charge = getelementptr inbounds %"struct.rocksdb::lru_cache::LRUHandle", ptr %6, i32 0, i32 5
  %7 = load i64, ptr %total_charge, align 8
  %high_pri_pool_usage_6 = getelementptr inbounds %"class.rocksdb::lru_cache::LRUCacheShard", ptr %this1, i32 0, i32 2
  %8 = load i64, ptr %high_pri_pool_usage_6, align 16
  %sub = sub i64 %8, %7
  store i64 %sub, ptr %high_pri_pool_usage_6, align 16
  %lru_low_pri_7 = getelementptr inbounds %"class.rocksdb::lru_cache::LRUCacheShard", ptr %this1, i32 0, i32 10
  %9 = load ptr, ptr %lru_low_pri_7, align 16
  %total_charge8 = getelementptr inbounds %"struct.rocksdb::lru_cache::LRUHandle", ptr %9, i32 0, i32 5
  %10 = load i64, ptr %total_charge8, align 8
  %low_pri_pool_usage_ = getelementptr inbounds %"class.rocksdb::lru_cache::LRUCacheShard", ptr %this1, i32 0, i32 3
  %11 = load i64, ptr %low_pri_pool_usage_, align 8
  %add = add i64 %11, %10
  store i64 %add, ptr %low_pri_pool_usage_, align 8
  br label %while.cond, !llvm.loop !14

while.end:                                        ; preds = %while.cond
  br label %while.cond9

while.cond9:                                      ; preds = %while.body13, %while.end
  %low_pri_pool_usage_10 = getelementptr inbounds %"class.rocksdb::lru_cache::LRUCacheShard", ptr %this1, i32 0, i32 3
  %12 = load i64, ptr %low_pri_pool_usage_10, align 8
  %conv11 = uitofp i64 %12 to double
  %low_pri_pool_capacity_ = getelementptr inbounds %"class.rocksdb::lru_cache::LRUCacheShard", ptr %this1, i32 0, i32 8
  %13 = load double, ptr %low_pri_pool_capacity_, align 64
  %cmp12 = fcmp ogt double %conv11, %13
  br i1 %cmp12, label %while.body13, label %while.end22

while.body13:                                     ; preds = %while.cond9
  %lru_bottom_pri_ = getelementptr inbounds %"class.rocksdb::lru_cache::LRUCacheShard", ptr %this1, i32 0, i32 11
  %14 = load ptr, ptr %lru_bottom_pri_, align 8
  %next14 = getelementptr inbounds %"struct.rocksdb::lru_cache::LRUHandle", ptr %14, i32 0, i32 3
  %15 = load ptr, ptr %next14, align 8
  %lru_bottom_pri_15 = getelementptr inbounds %"class.rocksdb::lru_cache::LRUCacheShard", ptr %this1, i32 0, i32 11
  store ptr %15, ptr %lru_bottom_pri_15, align 8
  %lru_bottom_pri_16 = getelementptr inbounds %"class.rocksdb::lru_cache::LRUCacheShard", ptr %this1, i32 0, i32 11
  %16 = load ptr, ptr %lru_bottom_pri_16, align 8
  call void @_ZN7rocksdb9lru_cache9LRUHandle16SetInHighPriPoolEb(ptr noundef nonnull align 8 dereferenceable(72) %16, i1 noundef zeroext false)
  %lru_bottom_pri_17 = getelementptr inbounds %"class.rocksdb::lru_cache::LRUCacheShard", ptr %this1, i32 0, i32 11
  %17 = load ptr, ptr %lru_bottom_pri_17, align 8
  call void @_ZN7rocksdb9lru_cache9LRUHandle15SetInLowPriPoolEb(ptr noundef nonnull align 8 dereferenceable(72) %17, i1 noundef zeroext false)
  %lru_bottom_pri_18 = getelementptr inbounds %"class.rocksdb::lru_cache::LRUCacheShard", ptr %this1, i32 0, i32 11
  %18 = load ptr, ptr %lru_bottom_pri_18, align 8
  %total_charge19 = getelementptr inbounds %"struct.rocksdb::lru_cache::LRUHandle", ptr %18, i32 0, i32 5
  %19 = load i64, ptr %total_charge19, align 8
  %low_pri_pool_usage_20 = getelementptr inbounds %"class.rocksdb::lru_cache::LRUCacheShard", ptr %this1, i32 0, i32 3
  %20 = load i64, ptr %low_pri_pool_usage_20, align 8
  %sub21 = sub i64 %20, %19
  store i64 %sub21, ptr %low_pri_pool_usage_20, align 8
  br label %while.cond9, !llvm.loop !15

while.end22:                                      ; preds = %while.cond9
  ret void
}

; Function Attrs: mustprogress uwtable
define linkonce_odr void @_ZNSt10lock_guardIN7rocksdb4port5MutexEEC2ERS2_(ptr noundef nonnull align 8 dereferenceable(8) %this, ptr noundef nonnull align 8 dereferenceable(40) %__m) unnamed_addr #0 comdat align 2 {
entry:
  %this.addr = alloca ptr, align 8
  %__m.addr = alloca ptr, align 8
  store ptr %this, ptr %this.addr, align 8
  store ptr %__m, ptr %__m.addr, align 8
  %this1 = load ptr, ptr %this.addr, align 8
  %_M_device = getelementptr inbounds %"class.std::lock_guard", ptr %this1, i32 0, i32 0
  %0 = load ptr, ptr %__m.addr, align 8
  store ptr %0, ptr %_M_device, align 8
  %_M_device2 = getelementptr inbounds %"class.std::lock_guard", ptr %this1, i32 0, i32 0
  %1 = load ptr, ptr %_M_device2, align 8
  call void @_ZN7rocksdb4port5Mutex4lockEv(ptr noundef nonnull align 8 dereferenceable(40) %1)
  ret void
}

; Function Attrs: mustprogress uwtable
define void @_ZN7rocksdb9lru_cache13LRUCacheShard23SetLowPriorityPoolRatioEd(ptr noundef nonnull align 64 dereferenceable(256) %this, double noundef %low_pri_pool_ratio) #0 align 2 personality ptr @__gxx_personality_v0 {
entry:
  %this.addr = alloca ptr, align 8
  %low_pri_pool_ratio.addr = alloca double, align 8
  %l = alloca %"class.std::lock_guard", align 8
  %exn.slot = alloca ptr, align 8
  %ehselector.slot = alloca i32, align 4
  store ptr %this, ptr %this.addr, align 8
  store double %low_pri_pool_ratio, ptr %low_pri_pool_ratio.addr, align 8
  %this1 = load ptr, ptr %this.addr, align 8
  %mutex_ = getelementptr inbounds %"class.rocksdb::lru_cache::LRUCacheShard", ptr %this1, i32 0, i32 15
  call void @_ZNSt10lock_guardIN7rocksdb4port5MutexEEC2ERS2_(ptr noundef nonnull align 8 dereferenceable(8) %l, ptr noundef nonnull align 8 dereferenceable(40) %mutex_)
  %0 = load double, ptr %low_pri_pool_ratio.addr, align 8
  %low_pri_pool_ratio_ = getelementptr inbounds %"class.rocksdb::lru_cache::LRUCacheShard", ptr %this1, i32 0, i32 7
  store double %0, ptr %low_pri_pool_ratio_, align 8
  %capacity_ = getelementptr inbounds %"class.rocksdb::lru_cache::LRUCacheShard", ptr %this1, i32 0, i32 1
  %1 = load i64, ptr %capacity_, align 8
  %conv = uitofp i64 %1 to double
  %low_pri_pool_ratio_2 = getelementptr inbounds %"class.rocksdb::lru_cache::LRUCacheShard", ptr %this1, i32 0, i32 7
  %2 = load double, ptr %low_pri_pool_ratio_2, align 8
  %mul = fmul double %conv, %2
  %low_pri_pool_capacity_ = getelementptr inbounds %"class.rocksdb::lru_cache::LRUCacheShard", ptr %this1, i32 0, i32 8
  store double %mul, ptr %low_pri_pool_capacity_, align 64
  invoke void @_ZN7rocksdb9lru_cache13LRUCacheShard16MaintainPoolSizeEv(ptr noundef nonnull align 64 dereferenceable(256) %this1)
          to label %invoke.cont unwind label %lpad

invoke.cont:                                      ; preds = %entry
  call void @_ZNSt10lock_guardIN7rocksdb4port5MutexEED2Ev(ptr noundef nonnull align 8 dereferenceable(8) %l) #15
  ret void

lpad:                                             ; preds = %entry
  %3 = landingpad { ptr, i32 }
          cleanup
  %4 = extractvalue { ptr, i32 } %3, 0
  store ptr %4, ptr %exn.slot, align 8
  %5 = extractvalue { ptr, i32 } %3, 1
  store i32 %5, ptr %ehselector.slot, align 4
  call void @_ZNSt10lock_guardIN7rocksdb4port5MutexEED2Ev(ptr noundef nonnull align 8 dereferenceable(8) %l) #15
  br label %eh.resume

eh.resume:                                        ; preds = %lpad
  %exn = load ptr, ptr %exn.slot, align 8
  %sel = load i32, ptr %ehselector.slot, align 4
  %lpad.val = insertvalue { ptr, i32 } poison, ptr %exn, 0
  %lpad.val3 = insertvalue { ptr, i32 } %lpad.val, i32 %sel, 1
  resume { ptr, i32 } %lpad.val3
}