; Function Attrs: mustprogress uwtable
define void @_ZN7rocksdb9lru_cache13LRUCacheShard23SetLowPriorityPoolRatioEd(ptr noundef nonnull align 64 dereferenceable(256) %this, double noundef %low_pri_pool_ratio) local_unnamed_addr #0 align 2 personality ptr @__gxx_personality_v0 {
entry:
  %mutex_ = getelementptr inbounds i8, ptr %this, i64 208
  tail call void @_ZN7rocksdb4port5Mutex4LockEv(ptr noundef nonnull align 8 dereferenceable(40) %mutex_)
  %low_pri_pool_ratio_ = getelementptr inbounds i8, ptr %this, i64 56
  store double %low_pri_pool_ratio, ptr %low_pri_pool_ratio_, align 8
  %capacity_ = getelementptr inbounds i8, ptr %this, i64 8
  %0 = load i64, ptr %capacity_, align 8
  %conv = uitofp i64 %0 to double
  %mul = fmul double %conv, %low_pri_pool_ratio
  %low_pri_pool_capacity_ = getelementptr inbounds i8, ptr %this, i64 64
  store double %mul, ptr %low_pri_pool_capacity_, align 64
  %high_pri_pool_usage_.i = getelementptr inbounds i8, ptr %this, i64 16
  %high_pri_pool_capacity_.i = getelementptr inbounds i8, ptr %this, i64 48
  %1 = load i64, ptr %high_pri_pool_usage_.i, align 16
  %conv4.i = uitofp i64 %1 to double
  %2 = load double, ptr %high_pri_pool_capacity_.i, align 16
  %cmp5.i = fcmp olt double %2, %conv4.i
  br i1 %cmp5.i, label %while.body.lr.ph.i, label %entry.while.cond9.preheader_crit_edge.i

entry.while.cond9.preheader_crit_edge.i:          ; preds = %entry
  %low_pri_pool_usage_10.phi.trans.insert.i = getelementptr inbounds i8, ptr %this, i64 24
  %.pre8.i = load i64, ptr %low_pri_pool_usage_10.phi.trans.insert.i, align 8
  br label %while.cond9.preheader.i

while.body.lr.ph.i:                               ; preds = %entry
  %lru_low_pri_.i = getelementptr inbounds i8, ptr %this, i64 144
  %low_pri_pool_usage_.i = getelementptr inbounds i8, ptr %this, i64 24
  %.pre.i = load ptr, ptr %lru_low_pri_.i, align 16
  br label %while.body.i

while.cond9.preheader.i.loopexit:                 ; preds = %while.body.i
  %.pre = load double, ptr %low_pri_pool_capacity_, align 64
  br label %while.cond9.preheader.i

while.cond9.preheader.i:                          ; preds = %while.cond9.preheader.i.loopexit, %entry.while.cond9.preheader_crit_edge.i
  %3 = phi double [ %mul, %entry.while.cond9.preheader_crit_edge.i ], [ %.pre, %while.cond9.preheader.i.loopexit ]
  %4 = phi i64 [ %.pre8.i, %entry.while.cond9.preheader_crit_edge.i ], [ %add.i, %while.cond9.preheader.i.loopexit ]
  %low_pri_pool_usage_10.i = getelementptr inbounds i8, ptr %this, i64 24
  %conv116.i = uitofp i64 %4 to double
  %cmp127.i = fcmp olt double %3, %conv116.i
  br i1 %cmp127.i, label %while.body13.lr.ph.i, label %invoke.cont

while.body13.lr.ph.i:                             ; preds = %while.cond9.preheader.i
  %lru_bottom_pri_.i = getelementptr inbounds i8, ptr %this, i64 152
  %.pre9.i = load ptr, ptr %lru_bottom_pri_.i, align 8
  br label %while.body13.i

while.body.i:                                     ; preds = %while.body.i, %while.body.lr.ph.i
  %5 = phi ptr [ %.pre.i, %while.body.lr.ph.i ], [ %11, %while.body.i ]
  %next.i = getelementptr inbounds i8, ptr %5, i64 24
  %6 = load ptr, ptr %next.i, align 8
  store ptr %6, ptr %lru_low_pri_.i, align 16
  %m_flags.i.i = getelementptr inbounds i8, ptr %6, i64 64
  %7 = load i8, ptr %m_flags.i.i, align 8
  %8 = and i8 %7, -5
  store i8 %8, ptr %m_flags.i.i, align 8
  %9 = load ptr, ptr %lru_low_pri_.i, align 16
  %m_flags.i1.i = getelementptr inbounds i8, ptr %9, i64 64
  %10 = load i8, ptr %m_flags.i1.i, align 8
  %.sink.i.i = or i8 %10, 8
  store i8 %.sink.i.i, ptr %m_flags.i1.i, align 8
  %11 = load ptr, ptr %lru_low_pri_.i, align 16
  %total_charge.i = getelementptr inbounds i8, ptr %11, i64 40
  %12 = load i64, ptr %total_charge.i, align 8
  %13 = load i64, ptr %high_pri_pool_usage_.i, align 16
  %sub.i = sub i64 %13, %12
  store i64 %sub.i, ptr %high_pri_pool_usage_.i, align 16
  %14 = load i64, ptr %total_charge.i, align 8
  %15 = load i64, ptr %low_pri_pool_usage_.i, align 8
  %add.i = add i64 %15, %14
  store i64 %add.i, ptr %low_pri_pool_usage_.i, align 8
  %conv.i = uitofp i64 %sub.i to double
  %16 = load double, ptr %high_pri_pool_capacity_.i, align 16
  %cmp.i = fcmp olt double %16, %conv.i
  br i1 %cmp.i, label %while.body.i, label %while.cond9.preheader.i.loopexit, !llvm.loop !19

while.body13.i:                                   ; preds = %while.body13.i, %while.body13.lr.ph.i
  %17 = phi ptr [ %.pre9.i, %while.body13.lr.ph.i ], [ %24, %while.body13.i ]
  %next14.i = getelementptr inbounds i8, ptr %17, i64 24
  %18 = load ptr, ptr %next14.i, align 8
  store ptr %18, ptr %lru_bottom_pri_.i, align 8
  %m_flags.i2.i = getelementptr inbounds i8, ptr %18, i64 64
  %19 = load i8, ptr %m_flags.i2.i, align 8
  %20 = and i8 %19, -5
  store i8 %20, ptr %m_flags.i2.i, align 8
  %21 = load ptr, ptr %lru_bottom_pri_.i, align 8
  %m_flags.i3.i = getelementptr inbounds i8, ptr %21, i64 64
  %22 = load i8, ptr %m_flags.i3.i, align 8
  %23 = and i8 %22, -9
  store i8 %23, ptr %m_flags.i3.i, align 8
  %24 = load ptr, ptr %lru_bottom_pri_.i, align 8
  %total_charge19.i = getelementptr inbounds i8, ptr %24, i64 40
  %25 = load i64, ptr %total_charge19.i, align 8
  %26 = load i64, ptr %low_pri_pool_usage_10.i, align 8
  %sub21.i = sub i64 %26, %25
  store i64 %sub21.i, ptr %low_pri_pool_usage_10.i, align 8
  %conv11.i = uitofp i64 %sub21.i to double
  %27 = load double, ptr %low_pri_pool_capacity_, align 64
  %cmp12.i = fcmp olt double %27, %conv11.i
  br i1 %cmp12.i, label %while.body13.i, label %invoke.cont, !llvm.loop !20

invoke.cont:                                      ; preds = %while.body13.i, %while.cond9.preheader.i
  invoke void @_ZN7rocksdb4port5Mutex6UnlockEv(ptr noundef nonnull align 8 dereferenceable(40) %mutex_)
          to label %_ZNSt10lock_guardIN7rocksdb4port5MutexEED2Ev.exit unwind label %terminate.lpad.i

terminate.lpad.i:                                 ; preds = %invoke.cont
  %28 = landingpad { ptr, i32 }
          catch ptr null
  %29 = extractvalue { ptr, i32 } %28, 0
  tail call void @__clang_call_terminate(ptr %29) #27
  unreachable

_ZNSt10lock_guardIN7rocksdb4port5MutexEED2Ev.exit: ; preds = %invoke.cont
  ret void
}